target datalayout = "e-m:e-p270:32:32-p271:32:32-p272:64:64-i64:64-i128:128-f80:128-n8:16:32:64-S128"
target triple = "x86_64-pc-linux-gnu"

%"class.duckdb::BaseStatistics" = type { %"struct.duckdb::LogicalType", i8, i8, i64, %union.anon, %"class.duckdb::unique_ptr" }
%"struct.duckdb::LogicalType" = type { i8, i8, %"class.duckdb::shared_ptr" }
%"class.duckdb::shared_ptr" = type { %"class.std::shared_ptr" }
%"class.std::shared_ptr" = type { %"class.std::__shared_ptr" }
%"class.std::__shared_ptr" = type { ptr, %"class.std::__shared_count" }
%"class.std::__shared_count" = type { ptr }
%union.anon = type { %"struct.duckdb::NumericStatsData" }
%"struct.duckdb::NumericStatsData" = type { i8, i8, %"struct.duckdb::NumericValueUnion", %"struct.duckdb::NumericValueUnion" }
%"struct.duckdb::NumericValueUnion" = type { %"union.duckdb::NumericValueUnion::Val" }
%"union.duckdb::NumericValueUnion::Val" = type { %"struct.duckdb::hugeint_t" }
%"struct.duckdb::hugeint_t" = type { i64, i64 }
%"class.duckdb::unique_ptr" = type { %"class.std::unique_ptr" }
%"class.std::unique_ptr" = type { %"struct.std::__uniq_ptr_data" }
%"struct.std::__uniq_ptr_data" = type { %"class.std::__uniq_ptr_impl" }
%"class.std::__uniq_ptr_impl" = type { %"class.std::tuple" }
%"class.std::tuple" = type { %"struct.std::_Tuple_impl" }
%"struct.std::_Tuple_impl" = type { %"struct.std::_Head_base.1" }
%"struct.std::_Head_base.1" = type { ptr }

@_ZN6duckdb14BaseStatisticsC1ENS_11LogicalTypeE = unnamed_addr alias void (ptr, ptr), ptr @_ZN6duckdb14BaseStatisticsC2ENS_11LogicalTypeE
@_ZN6duckdb14BaseStatisticsD1Ev = unnamed_addr alias void (ptr), ptr @_ZN6duckdb14BaseStatisticsD2Ev

; Function Attrs: mustprogress nounwind uwtable
define linkonce_odr noundef nonnull align 8 dereferenceable(8) ptr @_ZNSt10_Head_baseILm0EPN6duckdb14BaseStatisticsELb0EE7_M_headERKS3_(ptr noundef nonnull align 8 dereferenceable(8) %0) #6 comdat align 2 {
  %2 = alloca ptr, align 8
  store ptr %0, ptr %2, align 8, !tbaa !343
  %3 = load ptr, ptr %2, align 8, !tbaa !343
  %4 = getelementptr inbounds nuw %"struct.std::_Head_base.1", ptr %3, i32 0, i32 0
  ret ptr %4
}

; Function Attrs: mustprogress nounwind uwtable
define linkonce_odr noundef nonnull align 8 dereferenceable(8) ptr @_ZNSt11_Tuple_implILm0EJPN6duckdb14BaseStatisticsESt14default_deleteIA_S1_EEE7_M_headERKS6_(ptr noundef nonnull align 8 dereferenceable(8) %0) #6 comdat align 2 {
  %2 = alloca ptr, align 8
  store ptr %0, ptr %2, align 8, !tbaa !339
  %3 = load ptr, ptr %2, align 8, !tbaa !339
  %4 = call noundef nonnull align 8 dereferenceable(8) ptr @_ZNSt10_Head_baseILm0EPN6duckdb14BaseStatisticsELb0EE7_M_headERKS3_(ptr noundef nonnull align 8 dereferenceable(8) %3) #3
  ret ptr %4
}

; Function Attrs: mustprogress nounwind uwtable
define linkonce_odr noundef nonnull align 8 dereferenceable(8) ptr @_ZSt12__get_helperILm0EPN6duckdb14BaseStatisticsEJSt14default_deleteIA_S1_EEERKT0_RKSt11_Tuple_implIXT_EJS6_DpT1_EE(ptr noundef nonnull align 8 dereferenceable(8) %0) #6 comdat {
  %2 = alloca ptr, align 8
  store ptr %0, ptr %2, align 8, !tbaa !339
  %3 = load ptr, ptr %2, align 8, !tbaa !339
  %4 = call noundef nonnull align 8 dereferenceable(8) ptr @_ZNSt11_Tuple_implILm0EJPN6duckdb14BaseStatisticsESt14default_deleteIA_S1_EEE7_M_headERKS6_(ptr noundef nonnull align 8 dereferenceable(8) %3) #3
  ret ptr %4
}

; Function Attrs: mustprogress nounwind uwtable
define linkonce_odr noundef nonnull align 8 dereferenceable(8) ptr @_ZSt3getILm0EJPN6duckdb14BaseStatisticsESt14default_deleteIA_S1_EEERKNSt13tuple_elementIXT_ESt5tupleIJDpT0_EEE4typeERKSA_(ptr noundef nonnull align 8 dereferenceable(8) %0) #6 comdat {
  %2 = alloca ptr, align 8
  store ptr %0, ptr %2, align 8, !tbaa !337
  %3 = load ptr, ptr %2, align 8, !tbaa !337
  %4 = call noundef nonnull align 8 dereferenceable(8) ptr @_ZSt12__get_helperILm0EPN6duckdb14BaseStatisticsEJSt14default_deleteIA_S1_EEERKT0_RKSt11_Tuple_implIXT_EJS6_DpT1_EE(ptr noundef nonnull align 8 dereferenceable(8) %3) #3
  ret ptr %4
}

; Function Attrs: mustprogress nounwind uwtable
define linkonce_odr noundef ptr @_ZNKSt15__uniq_ptr_implIN6duckdb14BaseStatisticsESt14default_deleteIA_S1_EE6_M_ptrEv(ptr noundef nonnull align 8 dereferenceable(8) %0) #6 comdat align 2 {
  %2 = alloca ptr, align 8
  store ptr %0, ptr %2, align 8, !tbaa !335
  %3 = load ptr, ptr %2, align 8
  %4 = getelementptr inbounds nuw %"class.std::__uniq_ptr_impl", ptr %3, i32 0, i32 0
  %5 = call noundef nonnull align 8 dereferenceable(8) ptr @_ZSt3getILm0EJPN6duckdb14BaseStatisticsESt14default_deleteIA_S1_EEERKNSt13tuple_elementIXT_ESt5tupleIJDpT0_EEE4typeERKSA_(ptr noundef nonnull align 8 dereferenceable(8) %4) #3
  %6 = load ptr, ptr %5, align 8, !tbaa !3
  ret ptr %6
}

; Function Attrs: mustprogress nounwind uwtable
define linkonce_odr noundef ptr @_ZNKSt10unique_ptrIA_N6duckdb14BaseStatisticsESt14default_deleteIS2_EE3getEv(ptr noundef nonnull align 8 dereferenceable(8) %0) #6 comdat align 2 {
  %2 = alloca ptr, align 8
  store ptr %0, ptr %2, align 8, !tbaa !32
  %3 = load ptr, ptr %2, align 8
  %4 = getelementptr inbounds nuw %"class.std::unique_ptr", ptr %3, i32 0, i32 0
  %5 = call noundef ptr @_ZNKSt15__uniq_ptr_implIN6duckdb14BaseStatisticsESt14default_deleteIA_S1_EE6_M_ptrEv(ptr noundef nonnull align 8 dereferenceable(8) %4) #3
  ret ptr %5
}

; Function Attrs: mustprogress nounwind uwtable
define linkonce_odr noundef nonnull align 8 dereferenceable(88) ptr @_ZNK6duckdb10unique_ptrIA_NS_14BaseStatisticsESt14default_deleteIS1_ELb0EEixEm(ptr noundef nonnull align 8 dereferenceable(8) %0, i64 noundef %1) #6 comdat align 2 {
  %3 = alloca ptr, align 8
  %4 = alloca i64, align 8
  %5 = alloca ptr, align 8
  store ptr %0, ptr %3, align 8, !tbaa !8
  store i64 %1, ptr %4, align 8, !tbaa !40
  %6 = load ptr, ptr %3, align 8
  call void @llvm.lifetime.start.p0(i64 8, ptr %5) #3
  %7 = call noundef ptr @_ZNKSt10unique_ptrIA_N6duckdb14BaseStatisticsESt14default_deleteIS2_EE3getEv(ptr noundef nonnull align 8 dereferenceable(8) %6) #3
  store ptr %7, ptr %5, align 8, !tbaa !3
  %8 = load ptr, ptr %5, align 8, !tbaa !3
  %9 = load i64, ptr %4, align 8, !tbaa !40
  %10 = getelementptr inbounds nuw %"class.duckdb::BaseStatistics", ptr %8, i64 %9
  call void @llvm.lifetime.end.p0(i64 8, ptr %5) #3
  ret ptr %10
}

; Function Attrs: mustprogress nounwind uwtable
define void @_ZN6duckdb14BaseStatistics15InitializeEmptyEv(ptr noundef nonnull align 8 dereferenceable(88) %0) #6 align 2 {
  %2 = alloca ptr, align 8
  store ptr %0, ptr %2, align 8, !tbaa !3
  %3 = load ptr, ptr %2, align 8
  %4 = getelementptr inbounds nuw %"class.duckdb::BaseStatistics", ptr %3, i32 0, i32 1
  store i8 0, ptr %4, align 8, !tbaa !43
  %5 = getelementptr inbounds nuw %"class.duckdb::BaseStatistics", ptr %3, i32 0, i32 2
  store i8 1, ptr %5, align 1, !tbaa !46
  ret void
}

; Function Attrs: mustprogress uwtable
define void @_ZN6duckdb9ListStats11CreateEmptyENS_11LogicalTypeE(ptr dead_on_unwind noalias writable sret(%"class.duckdb::BaseStatistics") align 8 %0, ptr noundef %1) #4 align 2 personality ptr @__gxx_personality_v0 {
  %3 = alloca ptr, align 8
  %4 = alloca ptr, align 8
  %5 = alloca ptr, align 8
  %6 = alloca i1, align 1
  %7 = alloca %"struct.duckdb::LogicalType", align 8
  %8 = alloca ptr, align 8
  %9 = alloca i32, align 4
  %10 = alloca %"class.duckdb::BaseStatistics", align 8
  %11 = alloca %"struct.duckdb::LogicalType", align 8
  store ptr %0, ptr %3, align 8
  store ptr %1, ptr %4, align 8, !tbaa !10
  call void @llvm.lifetime.start.p0(i64 8, ptr %5) #3
  %12 = call noundef nonnull align 8 dereferenceable(24) ptr @_ZN6duckdb8ListType12GetChildTypeERKNS_11LogicalTypeE(ptr noundef nonnull align 8 dereferenceable(24) %1)
  store ptr %12, ptr %5, align 8, !tbaa !10
  store i1 false, ptr %6, align 1
  call void @_ZN6duckdb11LogicalTypeC1EOS0_(ptr noundef nonnull align 8 dereferenceable(24) %7, ptr noundef nonnull align 8 dereferenceable(24) %1) #3
  invoke void @_ZN6duckdb14BaseStatisticsC1ENS_11LogicalTypeE(ptr noundef nonnull align 8 dereferenceable(88) %0, ptr noundef %7)
          to label %13 unwind label %22

13:                                               ; preds = %2
  call void @_ZN6duckdb11LogicalTypeD1Ev(ptr noundef nonnull align 8 dereferenceable(24) %7) #3
  call void @_ZN6duckdb14BaseStatistics15InitializeEmptyEv(ptr noundef nonnull align 8 dereferenceable(88) %0)
  %14 = getelementptr inbounds nuw %"class.duckdb::BaseStatistics", ptr %0, i32 0, i32 5
  %15 = invoke noundef nonnull align 8 dereferenceable(88) ptr @_ZNK6duckdb10unique_ptrIA_NS_14BaseStatisticsESt14default_deleteIS1_ELb0EEixEm(ptr noundef nonnull align 8 dereferenceable(8) %14, i64 noundef 0)
          to label %16 unwind label %26

16:                                               ; preds = %13
  call void @llvm.lifetime.start.p0(i64 88, ptr %10) #3
  %17 = load ptr, ptr %5, align 8, !tbaa !10
  invoke void @_ZN6duckdb11LogicalTypeC1ERKS0_(ptr noundef nonnull align 8 dereferenceable(24) %11, ptr noundef nonnull align 8 dereferenceable(24) %17)
          to label %18 unwind label %30

18:                                               ; preds = %16
  invoke void @_ZN6duckdb14BaseStatistics11CreateEmptyENS_11LogicalTypeE(ptr dead_on_unwind writable sret(%"class.duckdb::BaseStatistics") align 8 %10, ptr noundef %11)
          to label %19 unwind label %34

19:                                               ; preds = %18
  invoke void @_ZN6duckdb14BaseStatistics4CopyERKS0_(ptr noundef nonnull align 8 dereferenceable(88) %15, ptr noundef nonnull align 8 dereferenceable(88) %10)
          to label %20 unwind label %38

20:                                               ; preds = %19
  call void @_ZN6duckdb14BaseStatisticsD1Ev(ptr noundef nonnull align 8 dereferenceable(88) %10) #3
  call void @_ZN6duckdb11LogicalTypeD1Ev(ptr noundef nonnull align 8 dereferenceable(24) %11) #3
  call void @llvm.lifetime.end.p0(i64 88, ptr %10) #3
  store i1 true, ptr %6, align 1
  %21 = load i1, ptr %6, align 1
  br i1 %21, label %45, label %44

22:                                               ; preds = %2
  %23 = landingpad { ptr, i32 }
          cleanup
  %24 = extractvalue { ptr, i32 } %23, 0
  store ptr %24, ptr %8, align 8
  %25 = extractvalue { ptr, i32 } %23, 1
  store i32 %25, ptr %9, align 4
  call void @_ZN6duckdb11LogicalTypeD1Ev(ptr noundef nonnull align 8 dereferenceable(24) %7) #3
  br label %47

26:                                               ; preds = %13
  %27 = landingpad { ptr, i32 }
          cleanup
  %28 = extractvalue { ptr, i32 } %27, 0
  store ptr %28, ptr %8, align 8
  %29 = extractvalue { ptr, i32 } %27, 1
  store i32 %29, ptr %9, align 4
  br label %46

30:                                               ; preds = %16
  %31 = landingpad { ptr, i32 }
          cleanup
  %32 = extractvalue { ptr, i32 } %31, 0
  store ptr %32, ptr %8, align 8
  %33 = extractvalue { ptr, i32 } %31, 1
  store i32 %33, ptr %9, align 4
  br label %43

34:                                               ; preds = %18
  %35 = landingpad { ptr, i32 }
          cleanup
  %36 = extractvalue { ptr, i32 } %35, 0
  store ptr %36, ptr %8, align 8
  %37 = extractvalue { ptr, i32 } %35, 1
  store i32 %37, ptr %9, align 4
  br label %42

38:                                               ; preds = %19
  %39 = landingpad { ptr, i32 }
          cleanup
  %40 = extractvalue { ptr, i32 } %39, 0
  store ptr %40, ptr %8, align 8
  %41 = extractvalue { ptr, i32 } %39, 1
  store i32 %41, ptr %9, align 4
  call void @_ZN6duckdb14BaseStatisticsD1Ev(ptr noundef nonnull align 8 dereferenceable(88) %10) #3
  br label %42

42:                                               ; preds = %38, %34
  call void @_ZN6duckdb11LogicalTypeD1Ev(ptr noundef nonnull align 8 dereferenceable(24) %11) #3
  br label %43

43:                                               ; preds = %42, %30
  call void @llvm.lifetime.end.p0(i64 88, ptr %10) #3
  br label %46

44:                                               ; preds = %20
  call void @_ZN6duckdb14BaseStatisticsD1Ev(ptr noundef nonnull align 8 dereferenceable(88) %0) #3
  br label %45

45:                                               ; preds = %44, %20
  call void @llvm.lifetime.end.p0(i64 8, ptr %5) #3
  ret void

46:                                               ; preds = %43, %26
  call void @_ZN6duckdb14BaseStatisticsD1Ev(ptr noundef nonnull align 8 dereferenceable(88) %0) #3
  br label %47

47:                                               ; preds = %46, %22
  call void @llvm.lifetime.end.p0(i64 8, ptr %5) #3
  br label %48

48:                                               ; preds = %47
  %49 = load ptr, ptr %8, align 8
  %50 = load i32, ptr %9, align 4
  %51 = insertvalue { ptr, i32 } poison, ptr %49, 0
  %52 = insertvalue { ptr, i32 } %51, i32 %50, 1
  resume { ptr, i32 } %52
}