; Function Attrs: mustprogress uwtable
define void @_ZN6duckdb9ListStats11CreateEmptyENS_11LogicalTypeE(ptr dead_on_unwind noalias writable sret(%"class.duckdb::BaseStatistics") align 8 %0, ptr noundef nonnull %1) local_unnamed_addr #3 align 2 personality ptr @__gxx_personality_v0 {
  %3 = alloca %"struct.duckdb::LogicalType", align 8
  %4 = alloca %"class.duckdb::BaseStatistics", align 8
  %5 = alloca %"struct.duckdb::LogicalType", align 8
  %6 = tail call noundef nonnull align 8 dereferenceable(24) ptr @_ZN6duckdb8ListType12GetChildTypeERKNS_11LogicalTypeE(ptr noundef nonnull align 8 dereferenceable(24) %1)
  call void @_ZN6duckdb11LogicalTypeC1EOS0_(ptr noundef nonnull align 8 dereferenceable(24) %3, ptr noundef nonnull align 8 dereferenceable(24) %1) #29
  invoke void @_ZN6duckdb14BaseStatisticsC1ENS_11LogicalTypeE(ptr noundef nonnull align 8 dereferenceable(88) %0, ptr noundef nonnull %3)
          to label %7 unwind label %15

7:                                                ; preds = %2
  call void @_ZN6duckdb11LogicalTypeD1Ev(ptr noundef nonnull align 8 dereferenceable(24) %3) #29
  %8 = getelementptr inbounds nuw i8, ptr %0, i64 24
  store i8 0, ptr %8, align 8, !tbaa !49
  %9 = getelementptr inbounds nuw i8, ptr %0, i64 25
  store i8 1, ptr %9, align 1, !tbaa !52
  %10 = getelementptr inbounds nuw i8, ptr %0, i64 80
  %11 = load ptr, ptr %10, align 8, !tbaa !33
  call void @llvm.lifetime.start.p0(i64 88, ptr nonnull %4) #29
  invoke void @_ZN6duckdb11LogicalTypeC1ERKS0_(ptr noundef nonnull align 8 dereferenceable(24) %5, ptr noundef nonnull align 8 dereferenceable(24) %6)
          to label %12 unwind label %17

12:                                               ; preds = %7
  invoke void @_ZN6duckdb14BaseStatistics11CreateEmptyENS_11LogicalTypeE(ptr dead_on_unwind nonnull writable sret(%"class.duckdb::BaseStatistics") align 8 %4, ptr noundef nonnull %5)
          to label %13 unwind label %19

13:                                               ; preds = %12
  invoke void @_ZN6duckdb14BaseStatistics4CopyERKS0_(ptr noundef nonnull align 8 dereferenceable(88) %11, ptr noundef nonnull align 8 dereferenceable(88) %4)
          to label %14 unwind label %21

14:                                               ; preds = %13
  call void @_ZN6duckdb14BaseStatisticsD1Ev(ptr noundef nonnull align 8 dereferenceable(88) %4) #29
  call void @_ZN6duckdb11LogicalTypeD1Ev(ptr noundef nonnull align 8 dereferenceable(24) %5) #29
  call void @llvm.lifetime.end.p0(i64 88, ptr nonnull %4) #29
  ret void

15:                                               ; preds = %2
  %16 = landingpad { ptr, i32 }
          cleanup
  call void @_ZN6duckdb11LogicalTypeD1Ev(ptr noundef nonnull align 8 dereferenceable(24) %3) #29
  br label %25

17:                                               ; preds = %7
  %18 = landingpad { ptr, i32 }
          cleanup
  br label %24

19:                                               ; preds = %12
  %20 = landingpad { ptr, i32 }
          cleanup
  br label %23

21:                                               ; preds = %13
  %22 = landingpad { ptr, i32 }
          cleanup
  call void @_ZN6duckdb14BaseStatisticsD1Ev(ptr noundef nonnull align 8 dereferenceable(88) %4) #29
  br label %23

23:                                               ; preds = %21, %19
  %.pn = phi { ptr, i32 } [ %22, %21 ], [ %20, %19 ]
  call void @_ZN6duckdb11LogicalTypeD1Ev(ptr noundef nonnull align 8 dereferenceable(24) %5) #29
  br label %24

24:                                               ; preds = %23, %17
  %.pn.pn = phi { ptr, i32 } [ %.pn, %23 ], [ %18, %17 ]
  call void @llvm.lifetime.end.p0(i64 88, ptr nonnull %4) #29
  call void @_ZN6duckdb14BaseStatisticsD1Ev(ptr noundef nonnull align 8 dereferenceable(88) %0) #29
  br label %25

25:                                               ; preds = %24, %15
  %.pn.pn.pn = phi { ptr, i32 } [ %.pn.pn, %24 ], [ %16, %15 ]
  resume { ptr, i32 } %.pn.pn.pn
}